target datalayout = "e-m:e-p270:32:32-p271:32:32-p272:64:64-i64:64-i128:128-f80:128-n8:16:32:64-S128"
target triple = "x86_64-pc-linux-gnu"

%"class.google::protobuf::uint128" = type { i64, i64 }

; Function Attrs: inlinehint mustprogress nounwind uwtable
define linkonce_odr void @_ZN6google8protobuf7uint128C2Ei(ptr noundef nonnull align 8 dereferenceable(16) %0, i32 noundef %1) unnamed_addr #7 comdat align 2 {
  %3 = alloca ptr, align 8
  %4 = alloca i32, align 4
  store ptr %0, ptr %3, align 8, !tbaa !3
  store i32 %1, ptr %4, align 4, !tbaa !14
  %5 = load ptr, ptr %3, align 8
  %6 = getelementptr inbounds nuw %"class.google::protobuf::uint128", ptr %5, i32 0, i32 0
  %7 = load i32, ptr %4, align 4, !tbaa !14
  %8 = sext i32 %7 to i64
  store i64 %8, ptr %6, align 8, !tbaa !11
  %9 = getelementptr inbounds nuw %"class.google::protobuf::uint128", ptr %5, i32 0, i32 1
  %10 = load i32, ptr %4, align 4, !tbaa !14
  %11 = icmp slt i32 %10, 0
  %12 = select i1 %11, i32 -1, i32 0
  %13 = sext i32 %12 to i64
  store i64 %13, ptr %9, align 8, !tbaa !8
  ret void
}

; Function Attrs: mustprogress uwtable
define noundef nonnull align 8 dereferenceable(16) ptr @_ZN6google8protobuf7uint128rMERKS1_(ptr noundef nonnull align 8 dereferenceable(16) %0, ptr noundef nonnull align 8 dereferenceable(16) %1) #4 align 2 {
  %3 = alloca ptr, align 8
  %4 = alloca ptr, align 8
  %5 = alloca %"class.google::protobuf::uint128", align 8
  %6 = alloca %"class.google::protobuf::uint128", align 8
  %7 = alloca %"class.google::protobuf::uint128", align 8
  %8 = alloca %"class.google::protobuf::uint128", align 8
  store ptr %0, ptr %3, align 8, !tbaa !3
  store ptr %1, ptr %4, align 8, !tbaa !3
  %9 = load ptr, ptr %3, align 8
  call void @llvm.lifetime.start.p0(i64 16, ptr %5) #3
  call void @_ZN6google8protobuf7uint128C2Ei(ptr noundef nonnull align 8 dereferenceable(16) %5, i32 noundef 0)
  call void @llvm.lifetime.start.p0(i64 16, ptr %6) #3
  call void @_ZN6google8protobuf7uint128C2Ei(ptr noundef nonnull align 8 dereferenceable(16) %6, i32 noundef 0)
  call void @llvm.memcpy.p0.p0.i64(ptr align 8 %7, ptr align 8 %9, i64 16, i1 false), !tbaa.struct !12
  %10 = load ptr, ptr %4, align 8, !tbaa !3
  call void @llvm.memcpy.p0.p0.i64(ptr align 8 %8, ptr align 8 %10, i64 16, i1 false), !tbaa.struct !12
  %11 = getelementptr inbounds nuw { i64, i64 }, ptr %7, i32 0, i32 0
  %12 = load i64, ptr %11, align 8
  %13 = getelementptr inbounds nuw { i64, i64 }, ptr %7, i32 0, i32 1
  %14 = load i64, ptr %13, align 8
  %15 = getelementptr inbounds nuw { i64, i64 }, ptr %8, i32 0, i32 0
  %16 = load i64, ptr %15, align 8
  %17 = getelementptr inbounds nuw { i64, i64 }, ptr %8, i32 0, i32 1
  %18 = load i64, ptr %17, align 8
  call void @_ZN6google8protobuf7uint12810DivModImplES1_S1_PS1_S2_(i64 %12, i64 %14, i64 %16, i64 %18, ptr noundef %5, ptr noundef %6)
  call void @llvm.memcpy.p0.p0.i64(ptr align 8 %9, ptr align 8 %6, i64 16, i1 false), !tbaa.struct !12
  call void @llvm.lifetime.end.p0(i64 16, ptr %6) #3
  call void @llvm.lifetime.end.p0(i64 16, ptr %5) #3
  ret ptr %9
}